ARM GAS  /var/folders/0d/gwzvz0b94t58_d5v6cmr4zpw0000gn/T//ccrWMvC6.s 			page 1


   1              		.cpu cortex-m4
   2              		.eabi_attribute 27, 1
   3              		.eabi_attribute 28, 1
   4              		.eabi_attribute 20, 1
   5              		.eabi_attribute 21, 1
   6              		.eabi_attribute 23, 3
   7              		.eabi_attribute 24, 1
   8              		.eabi_attribute 25, 1
   9              		.eabi_attribute 26, 1
  10              		.eabi_attribute 30, 2
  11              		.eabi_attribute 34, 1
  12              		.eabi_attribute 18, 4
  13              		.file	"main.c"
  14              		.text
  15              	.Ltext0:
  16              		.cfi_sections	.debug_frame
  17              		.section	.text.startup.main,"ax",%progbits
  18              		.align	1
  19              		.p2align 4,,15
  20              		.global	main
  21              		.syntax unified
  22              		.thumb
  23              		.thumb_func
  24              		.fpu fpv4-sp-d16
  25              		.type	main, %function
  26              	main:
  27              	.LFB262:
  28              		.file 1 "main.c"
  29              		.loc 1 74 0
  30              		.cfi_startproc
  31              		@ args = 0, pretend = 0, frame = 136
  32              		@ frame_needed = 0, uses_anonymous_args = 0
  33 0000 30B5     		push	{r4, r5, lr}
  34              		.cfi_def_cfa_offset 12
  35              		.cfi_offset 4, -12
  36              		.cfi_offset 5, -8
  37              		.cfi_offset 14, -4
  38 0002 1E4B     		ldr	r3, .L11
  39 0004 A3B0     		sub	sp, sp, #140
  40              		.cfi_def_cfa_offset 152
  41              		.loc 1 74 0
  42 0006 1B68     		ldr	r3, [r3]
  43 0008 2193     		str	r3, [sp, #132]
  44              		.loc 1 76 0
  45 000a FFF7FEFF 		bl	halInit
  46              	.LVL0:
  47              		.loc 1 77 0
  48 000e FFF7FEFF 		bl	chSysInit
  49              	.LVL1:
  50              		.loc 1 78 0
  51 0012 FFF7FEFF 		bl	mpu_init
  52              	.LVL2:
  53              	.LBB5:
  54              	.LBB6:
  55              		.loc 1 67 0
  56 0016 1A49     		ldr	r1, .L11+4
  57 0018 1A48     		ldr	r0, .L11+8
ARM GAS  /var/folders/0d/gwzvz0b94t58_d5v6cmr4zpw0000gn/T//ccrWMvC6.s 			page 2


  58 001a FFF7FEFF 		bl	sdStart
  59              	.LVL3:
  60              	.LBE6:
  61              	.LBE5:
  62              		.loc 1 82 0
  63 001e FFF7FEFF 		bl	proximity_start
  64              	.LVL4:
  65              		.loc 1 84 0
  66 0022 FFF7FEFF 		bl	motors_init
  67              	.LVL5:
  68              		.loc 1 86 0
  69 0026 FFF7FEFF 		bl	inti_th_motor
  70              	.LVL6:
  71              		.loc 1 89 0
  72 002a 174A     		ldr	r2, .L11+12
  73 002c 1749     		ldr	r1, .L11+16
  74 002e 1848     		ldr	r0, .L11+20
  75 0030 FFF7FEFF 		bl	messagebus_init
  76              	.LVL7:
  77              		.loc 1 90 0
  78 0034 1749     		ldr	r1, .L11+24
  79 0036 1648     		ldr	r0, .L11+20
  80 0038 FFF7FEFF 		bl	messagebus_find_topic_blocking
  81              	.LVL8:
  82 003c 0546     		mov	r5, r0
  83              	.LVL9:
  84              		.loc 1 94 0
  85 003e FFF7FEFF 		bl	calibrate_ir
  86              	.LVL10:
  87              		.loc 1 105 0
  88 0042 4FF4FA60 		mov	r0, #2000
  89 0046 FFF7FEFF 		bl	chThdSleep
  90              	.LVL11:
  91 004a 18AC     		add	r4, sp, #96
  92              	.L2:
  93              		.loc 1 123 0
  94 004c 01A9     		add	r1, sp, #4
  95 004e 8022     		movs	r2, #128
  96 0050 2846     		mov	r0, r5
  97 0052 FFF7FEFF 		bl	messagebus_topic_wait
  98              	.LVL12:
  99 0056 11AB     		add	r3, sp, #68
 100 0058 0021     		movs	r1, #0
 101              	.LVL13:
 102              	.L4:
 103              	.LBB7:
 104              		.loc 1 129 0
 105 005a 53F8042B 		ldr	r2, [r3], #4
 106 005e 642A     		cmp	r2, #100
 107              		.loc 1 131 0
 108 0060 88BF     		it	hi
 109 0062 0131     		addhi	r1, r1, #1
 110              	.LVL14:
 111              		.loc 1 126 0
 112 0064 A342     		cmp	r3, r4
 113 0066 F8D1     		bne	.L4
 114              	.LBE7:
ARM GAS  /var/folders/0d/gwzvz0b94t58_d5v6cmr4zpw0000gn/T//ccrWMvC6.s 			page 3


 115              		.loc 1 134 0
 116 0068 19B1     		cbz	r1, .L5
 117              		.loc 1 136 0
 118 006a 7A20     		movs	r0, #122
 119 006c FFF7FEFF 		bl	set_direction_motors
 120              	.LVL15:
 121 0070 ECE7     		b	.L2
 122              	.LVL16:
 123              	.L5:
 124              		.loc 1 140 0
 125 0072 7920     		movs	r0, #121
 126 0074 FFF7FEFF 		bl	set_direction_motors
 127              	.LVL17:
 128 0078 E8E7     		b	.L2
 129              	.L12:
 130 007a 00BF     		.align	2
 131              	.L11:
 132 007c 00000000 		.word	__stack_chk_guard
 133 0080 00000000 		.word	.LANCHOR0
 134 0084 00000000 		.word	SD3
 135 0088 00000000 		.word	.LANCHOR1
 136 008c 00000000 		.word	.LANCHOR2
 137 0090 00000000 		.word	.LANCHOR3
 138 0094 00000000 		.word	.LC0
 139              		.cfi_endproc
 140              	.LFE262:
 141              		.size	main, .-main
 142              		.section	.text.__stack_chk_fail,"ax",%progbits
 143              		.align	1
 144              		.p2align 4,,15
 145              		.global	__stack_chk_fail
 146              		.syntax unified
 147              		.thumb
 148              		.thumb_func
 149              		.fpu fpv4-sp-d16
 150              		.type	__stack_chk_fail, %function
 151              	__stack_chk_fail:
 152              	.LFB263:
 153              		.loc 1 160 0
 154              		.cfi_startproc
 155              		@ args = 0, pretend = 0, frame = 8
 156              		@ frame_needed = 0, uses_anonymous_args = 0
 157 0000 00B5     		push	{lr}
 158              		.cfi_def_cfa_offset 4
 159              		.cfi_offset 14, -4
 160 0002 084B     		ldr	r3, .L18
 161 0004 83B0     		sub	sp, sp, #12
 162              		.cfi_def_cfa_offset 16
 163              		.loc 1 160 0
 164 0006 1A68     		ldr	r2, [r3]
 165 0008 0192     		str	r2, [sp, #4]
 166              		.loc 1 161 0
 167 000a 019A     		ldr	r2, [sp, #4]
 168 000c 1B68     		ldr	r3, [r3]
 169 000e 9A42     		cmp	r2, r3
 170 0010 05D1     		bne	.L17
 171 0012 0548     		ldr	r0, .L18+4
ARM GAS  /var/folders/0d/gwzvz0b94t58_d5v6cmr4zpw0000gn/T//ccrWMvC6.s 			page 4


 172              		.loc 1 162 0
 173 0014 03B0     		add	sp, sp, #12
 174              		.cfi_remember_state
 175              		.cfi_def_cfa_offset 4
 176              		@ sp needed
 177 0016 5DF804EB 		ldr	lr, [sp], #4
 178              		.cfi_restore 14
 179              		.cfi_def_cfa_offset 0
 180              		.loc 1 161 0
 181 001a FFF7FEBF 		b	chSysHalt
 182              	.LVL18:
 183              	.L17:
 184              		.cfi_restore_state
 185 001e FFF7FEFF 		bl	__stack_chk_fail
 186              	.LVL19:
 187              	.L19:
 188 0022 00BF     		.align	2
 189              	.L18:
 190 0024 00000000 		.word	__stack_chk_guard
 191 0028 00000000 		.word	.LC1
 192              		.cfi_endproc
 193              	.LFE263:
 194              		.size	__stack_chk_fail, .-__stack_chk_fail
 195              		.global	__stack_chk_guard
 196              		.global	bus_condvar
 197              		.global	bus_lock
 198              		.global	bus
 199              		.section	.bss.bus,"aw",%nobits
 200              		.align	2
 201              		.set	.LANCHOR3,. + 0
 202              		.type	bus, %object
 203              		.size	bus, 12
 204              	bus:
 205 0000 00000000 		.space	12
 205      00000000 
 205      00000000 
 206              		.section	.data.__stack_chk_guard,"aw",%progbits
 207              		.align	2
 208              		.type	__stack_chk_guard, %object
 209              		.size	__stack_chk_guard, 4
 210              	__stack_chk_guard:
 211 0000 96E3DEE2 		.word	-488709226
 212              		.section	.data.bus_condvar,"aw",%progbits
 213              		.align	2
 214              		.set	.LANCHOR1,. + 0
 215              		.type	bus_condvar, %object
 216              		.size	bus_condvar, 8
 217              	bus_condvar:
 218 0000 00000000 		.word	bus_condvar
 219 0004 00000000 		.word	bus_condvar
 220              		.section	.data.bus_lock,"aw",%progbits
 221              		.align	2
 222              		.set	.LANCHOR2,. + 0
 223              		.type	bus_lock, %object
 224              		.size	bus_lock, 20
 225              	bus_lock:
 226 0000 00000000 		.word	bus_lock
ARM GAS  /var/folders/0d/gwzvz0b94t58_d5v6cmr4zpw0000gn/T//ccrWMvC6.s 			page 5


 227 0004 00000000 		.word	bus_lock
 228 0008 00000000 		.word	0
 229 000c 00000000 		.word	0
 230 0010 00000000 		.word	0
 231              		.section	.data.ser_cfg.14602,"aw",%progbits
 232              		.align	2
 233              		.set	.LANCHOR0,. + 0
 234              		.type	ser_cfg.14602, %object
 235              		.size	ser_cfg.14602, 12
 236              	ser_cfg.14602:
 237 0000 00C20100 		.word	115200
 238 0004 0000     		.short	0
 239 0006 0000     		.short	0
 240 0008 0000     		.short	0
 241 000a 0000     		.space	2
 242              		.section	.rodata.__stack_chk_fail.str1.4,"aMS",%progbits,1
 243              		.align	2
 244              	.LC1:
 245 0000 53746163 		.ascii	"Stack smashing detected\000"
 245      6B20736D 
 245      61736869 
 245      6E672064 
 245      65746563 
 246              		.section	.rodata.main.str1.4,"aMS",%progbits,1
 247              		.align	2
 248              	.LC0:
 249 0000 2F70726F 		.ascii	"/proximity\000"
 249      78696D69 
 249      747900
 250              		.text
 251              	.Letext0:
 252              		.file 2 "/Applications/Eclipse_e-puck2.app/Contents/Eclipse_e-puck2/Tools/gcc-arm-none-eabi-7-2017
 253              		.file 3 "/Applications/Eclipse_e-puck2.app/Contents/Eclipse_e-puck2/Tools/gcc-arm-none-eabi-7-2017
 254              		.file 4 "/Applications/Eclipse_e-puck2.app/Contents/Eclipse_e-puck2/Tools/gcc-arm-none-eabi-7-2017
 255              		.file 5 "/Applications/Eclipse_e-puck2.app/Contents/Eclipse_e-puck2/Tools/gcc-arm-none-eabi-7-2017
 256              		.file 6 "/Applications/Eclipse_e-puck2.app/Contents/Eclipse_e-puck2/Tools/gcc-arm-none-eabi-7-2017
 257              		.file 7 "/Applications/Eclipse_e-puck2.app/Contents/Eclipse_e-puck2/Tools/gcc-arm-none-eabi-7-2017
 258              		.file 8 "/Applications/Eclipse_e-puck2.app/Contents/Eclipse_e-puck2/Tools/gcc-arm-none-eabi-7-2017
 259              		.file 9 "/Applications/Eclipse_e-puck2.app/Contents/Eclipse_e-puck2/Tools/gcc-arm-none-eabi-7-2017
 260              		.file 10 "../../lib/e-puck2_main-processor/ChibiOS//os/rt/ports/ARMCMx/compilers/GCC/chtypes.h"
 261              		.file 11 "../../lib/e-puck2_main-processor/ChibiOS//os/rt/include/chsystypes.h"
 262              		.file 12 "../../lib/e-puck2_main-processor/ChibiOS//os/rt/include/chschd.h"
 263              		.file 13 "../../lib/e-puck2_main-processor/ChibiOS//os/ext/CMSIS/include/core_cm4.h"
 264              		.file 14 "../../lib/e-puck2_main-processor/ChibiOS//os/ext/CMSIS/ST/system_stm32f4xx.h"
 265              		.file 15 "../../lib/e-puck2_main-processor/ChibiOS//os/ext/CMSIS/ST/stm32f407xx.h"
 266              		.file 16 "../../lib/e-puck2_main-processor/ChibiOS//os/rt/ports/ARMCMx/chcore.h"
 267              		.file 17 "../../lib/e-puck2_main-processor/ChibiOS//os/rt/ports/ARMCMx/chcore_v7m.h"
 268              		.file 18 "../../lib/e-puck2_main-processor/ChibiOS//os/rt/include/chdebug.h"
 269              		.file 19 "../../lib/e-puck2_main-processor/ChibiOS//os/rt/include/chtm.h"
 270              		.file 20 "../../lib/e-puck2_main-processor/ChibiOS//os/rt/include/chstats.h"
 271              		.file 21 "../../lib/e-puck2_main-processor/ChibiOS//os/rt/include/chsem.h"
 272              		.file 22 "../../lib/e-puck2_main-processor/ChibiOS//os/rt/include/chmtx.h"
 273              		.file 23 "../../lib/e-puck2_main-processor/ChibiOS//os/rt/include/chregistry.h"
 274              		.file 24 "../../lib/e-puck2_main-processor/ChibiOS//os/rt/include/chcond.h"
 275              		.file 25 "../../lib/e-puck2_main-processor/ChibiOS//os/rt/include/chevents.h"
 276              		.file 26 "../../lib/e-puck2_main-processor/ChibiOS//os/rt/include/chqueues.h"
 277              		.file 27 "../../lib/e-puck2_main-processor/ChibiOS//os/hal/ports/STM32/STM32F4xx/stm32_dma.h"
ARM GAS  /var/folders/0d/gwzvz0b94t58_d5v6cmr4zpw0000gn/T//ccrWMvC6.s 			page 6


 278              		.file 28 "../../lib/e-puck2_main-processor/ChibiOS//os/hal/include/hal_ioblock.h"
 279              		.file 29 "../../lib/e-puck2_main-processor/ChibiOS//os/hal/ports/STM32/LLD/GPIOv2/pal_lld.h"
 280              		.file 30 "../../lib/e-puck2_main-processor/ChibiOS//os/hal/include/adc.h"
 281              		.file 31 "../../lib/e-puck2_main-processor/ChibiOS//os/hal/ports/STM32/STM32F4xx/adc_lld.h"
 282              		.file 32 "../../lib/e-puck2_main-processor/ChibiOS//os/hal/include/can.h"
 283              		.file 33 "../../lib/e-puck2_main-processor/ChibiOS//os/hal/ports/STM32/LLD/can_lld.h"
 284              		.file 34 "../../lib/e-puck2_main-processor/ChibiOS//os/hal/include/dac.h"
 285              		.file 35 "../../lib/e-puck2_main-processor/ChibiOS//os/hal/ports/STM32/LLD/DACv1/dac_lld.h"
 286              		.file 36 "../../lib/e-puck2_main-processor/ChibiOS//os/hal/include/ext.h"
 287              		.file 37 "../../lib/e-puck2_main-processor/ChibiOS//os/hal/ports/STM32/LLD/ext_lld.h"
 288              		.file 38 "../../lib/e-puck2_main-processor/ChibiOS//os/hal/include/gpt.h"
 289              		.file 39 "../../lib/e-puck2_main-processor/ChibiOS//os/hal/ports/STM32/LLD/TIMv1/gpt_lld.h"
 290              		.file 40 "../../lib/e-puck2_main-processor/ChibiOS//os/hal/ports/STM32/LLD/TIMv1/stm32_tim.h"
 291              		.file 41 "../../lib/e-puck2_main-processor/ChibiOS//os/hal/include/i2c.h"
 292              		.file 42 "../../lib/e-puck2_main-processor/ChibiOS//os/hal/ports/STM32/LLD/I2Cv1/i2c_lld.h"
 293              		.file 43 "../../lib/e-puck2_main-processor/ChibiOS//os/hal/include/i2s.h"
 294              		.file 44 "../../lib/e-puck2_main-processor/ChibiOS//os/hal/ports/STM32/LLD/SPIv1/i2s_lld.h"
 295              		.file 45 "../../lib/e-puck2_main-processor/ChibiOS//os/hal/include/pwm.h"
 296              		.file 46 "../../lib/e-puck2_main-processor/ChibiOS//os/hal/ports/STM32/LLD/TIMv1/pwm_lld.h"
 297              		.file 47 "../../lib/e-puck2_main-processor/ChibiOS//os/hal/include/serial.h"
 298              		.file 48 "../../lib/e-puck2_main-processor/ChibiOS//os/hal/ports/STM32/LLD/USARTv1/serial_lld.h"
 299              		.file 49 "../../lib/e-puck2_main-processor/ChibiOS//os/hal/include/sdc.h"
 300              		.file 50 "../../lib/e-puck2_main-processor/ChibiOS//os/hal/ports/STM32/LLD/sdc_lld.h"
 301              		.file 51 "../../lib/e-puck2_main-processor/ChibiOS//os/hal/include/spi.h"
 302              		.file 52 "../../lib/e-puck2_main-processor/ChibiOS//os/hal/ports/STM32/LLD/SPIv1/spi_lld.h"
 303              		.file 53 "../../lib/e-puck2_main-processor/ChibiOS//os/hal/include/usb.h"
 304              		.file 54 "../../lib/e-puck2_main-processor/ChibiOS//os/hal/ports/STM32/LLD/OTGv1/usb_lld.h"
 305              		.file 55 "../../lib/e-puck2_main-processor/ChibiOS//os/hal/ports/STM32/LLD/OTGv1/stm32_otg.h"
 306              		.file 56 "../../lib/e-puck2_main-processor/ChibiOS//os/hal/include/serial_usb.h"
 307              		.file 57 "../../lib/e-puck2_main-processor/ChibiOS//os/various/shell.h"
 308              		.file 58 "../../lib/e-puck2_main-processor/aseba/common/types.h"
 309              		.file 59 "../../lib/e-puck2_main-processor/aseba/vm/vm.h"
 310              		.file 60 "../../lib/e-puck2_main-processor/src/parameter/parameter.h"
 311              		.file 61 "../../lib/e-puck2_main-processor/src/aseba_vm/aseba_node.h"
 312              		.file 62 "../../lib/e-puck2_main-processor/aseba/vm/natives.h"
 313              		.file 63 "../../lib/e-puck2_main-processor/src/sensors/mpu9250.h"
 314              		.file 64 "../../lib/e-puck2_main-processor/src/leds.h"
 315              		.file 65 "../../lib/e-puck2_main-processor/src/aseba_vm/skel_user.h"
 316              		.file 66 "../../lib/e-puck2_main-processor/src/sensors/proximity.h"
 317              		.file 67 "../../lib/e-puck2_main-processor/src/exti.h"
 318              		.file 68 "../../lib/e-puck2_main-processor/ChibiOS_ext/os/hal/include/../ports/STM32/STM32F4xx/dcm
 319              		.file 69 "/Applications/Eclipse_e-puck2.app/Contents/Eclipse_e-puck2/Tools/gcc-arm-none-eabi-7-201
 320              		.file 70 "../../lib/e-puck2_main-processor/src/msgbus/messagebus.h"
 321              		.file 71 "./main.h"
 322              		.file 72 "../../lib/e-puck2_main-processor/src/usbcfg.h"
 323              		.file 73 "../../lib/e-puck2_main-processor/ChibiOS//os/rt/include/chsys.h"
 324              		.file 74 "../../lib/e-puck2_main-processor/ChibiOS//os/hal/include/hal.h"
 325              		.file 75 "../../lib/e-puck2_main-processor/src/memory_protection.h"
 326              		.file 76 "../../lib/e-puck2_main-processor/src/motors.h"
 327              		.file 77 "motor.h"
 328              		.file 78 "../../lib/e-puck2_main-processor/ChibiOS//os/rt/include/chthreads.h"